target datalayout = "e-m:e-p270:32:32-p271:32:32-p272:64:64-i64:64-i128:128-f80:128-n8:16:32:64-S128"
target triple = "x86_64-pc-linux-gnu"

%struct.ARKodeMemRec = type { ptr, double, ptr, i32, i32, double, double, ptr, i32, double, ptr, i32, i32, ptr, ptr, i32, ptr, ptr, i32, ptr, ptr, ptr, ptr, ptr, ptr, ptr, ptr, ptr, ptr, ptr, ptr, ptr, ptr, ptr, i32, ptr, ptr, i32, ptr, i32, ptr, ptr, ptr, ptr, ptr, ptr, ptr, ptr, ptr, ptr, ptr, ptr, ptr, ptr, ptr, ptr, ptr, ptr, ptr, ptr, ptr, ptr, ptr, ptr, ptr, ptr, i32, ptr, ptr, ptr, ptr, ptr, ptr, ptr, i32, ptr, ptr, ptr, i32, ptr, ptr, ptr, ptr, ptr, ptr, ptr, i32, i32, i32, i32, double, double, double, double, double, double, double, double, double, double, i32, ptr, i64, i32, i32, i32, i32, i64, i64, i32, i64, i64, i64, i64, i64, i64, i64, double, double, double, double, double, i32, double, double, i32, i32, i32, i32, i32, i32, i32, i32, ptr, i32, ptr, ptr, ptr, ptr, i32, i32, i32 }
%struct.ARKLsMemRec = type { i32, i32, i32, ptr, ptr, i32, i32, double, double, ptr, ptr, ptr, ptr, ptr, ptr, ptr, i64, double, i64, i64, i64, i64, i64, i64, i64, i64, i64, double, ptr, ptr, ptr, ptr, i32, ptr, ptr, ptr, ptr, i32, ptr, ptr, i32 }

@.str = private unnamed_addr constant [118 x i8] c"generated/home/dtcxzyw/WorkSpace/Projects/compilers/llvm-opt-benchmark/bench/sundials/sundials/src/arkode/arkode_ls.c\00", align 1
@.str.1 = private unnamed_addr constant [27 x i8] c"arkode_mem = NULL illegal.\00", align 1
@.str.2 = private unnamed_addr constant [58 x i8] c"time-stepping module does not require an algebraic solver\00", align 1
@__func__.ARKodeSetLSNormFactor = private unnamed_addr constant [22 x i8] c"ARKodeSetLSNormFactor\00", align 1
@.str.64 = private unnamed_addr constant [30 x i8] c"Linear solver memory is NULL.\00", align 1

; Function Attrs: nounwind uwtable
define i32 @arkLs_AccessLMem(ptr noundef %0, ptr noundef %1, ptr noundef %2) #0 {
  %4 = alloca i32, align 4
  %5 = alloca ptr, align 8
  %6 = alloca ptr, align 8
  %7 = alloca ptr, align 8
  %8 = alloca ptr, align 8
  %9 = alloca i32, align 4
  store ptr %0, ptr %5, align 8, !tbaa !11
  store ptr %1, ptr %6, align 8, !tbaa !155
  store ptr %2, ptr %7, align 8, !tbaa !157
  call void @llvm.lifetime.start.p0(i64 8, ptr %8) #7
  %10 = load ptr, ptr %5, align 8, !tbaa !11
  %11 = getelementptr inbounds nuw %struct.ARKodeMemRec, ptr %10, i32 0, i32 42
  %12 = load ptr, ptr %11, align 8, !tbaa !41
  %13 = load ptr, ptr %5, align 8, !tbaa !11
  %14 = call ptr %12(ptr noundef %13)
  store ptr %14, ptr %8, align 8, !tbaa !3
  %15 = load ptr, ptr %8, align 8, !tbaa !3
  %16 = icmp eq ptr %15, null
  br i1 %16, label %17, label %20

17:                                               ; preds = %3
  %18 = load ptr, ptr %5, align 8, !tbaa !11
  %19 = load ptr, ptr %6, align 8, !tbaa !155
  call void (ptr, i32, i32, ptr, ptr, ptr, ...) @arkProcessError(ptr noundef %18, i32 noundef -2, i32 noundef 4072, ptr noundef %19, ptr noundef @.str, ptr noundef @.str.64)
  store i32 -2, ptr %4, align 4
  store i32 1, ptr %9, align 4
  br label %23

20:                                               ; preds = %3
  %21 = load ptr, ptr %8, align 8, !tbaa !3
  %22 = load ptr, ptr %7, align 8, !tbaa !157
  store ptr %21, ptr %22, align 8, !tbaa !44
  store i32 0, ptr %4, align 4
  store i32 1, ptr %9, align 4
  br label %23

23:                                               ; preds = %20, %17
  call void @llvm.lifetime.end.p0(i64 8, ptr %8) #7
  %24 = load i32, ptr %4, align 4
  ret i32 %24
}

; Function Attrs: nounwind uwtable
define i32 @ARKodeSetLSNormFactor(ptr noundef %0, double noundef %1) #0 {
  %3 = alloca i32, align 4
  %4 = alloca ptr, align 8
  %5 = alloca double, align 8
  %6 = alloca ptr, align 8
  %7 = alloca ptr, align 8
  %8 = alloca i32, align 4
  %9 = alloca i32, align 4
  store ptr %0, ptr %4, align 8, !tbaa !3
  store double %1, ptr %5, align 8, !tbaa !77
  call void @llvm.lifetime.start.p0(i64 8, ptr %6) #7
  call void @llvm.lifetime.start.p0(i64 8, ptr %7) #7
  call void @llvm.lifetime.start.p0(i64 4, ptr %8) #7
  %10 = load ptr, ptr %4, align 8, !tbaa !3
  %11 = icmp eq ptr %10, null
  br i1 %11, label %12, label %13

12:                                               ; preds = %2
  call void (ptr, i32, i32, ptr, ptr, ptr, ...) @arkProcessError(ptr noundef null, i32 noundef -21, i32 noundef 701, ptr noundef @__func__.ARKodeSetLSNormFactor, ptr noundef @.str, ptr noundef @.str.1)
  store i32 -21, ptr %3, align 4
  store i32 1, ptr %9, align 4
  br label %85

13:                                               ; preds = %2
  %14 = load ptr, ptr %4, align 8, !tbaa !3
  store ptr %14, ptr %6, align 8, !tbaa !11
  %15 = load ptr, ptr %6, align 8, !tbaa !11
  %16 = getelementptr inbounds nuw %struct.ARKodeMemRec, ptr %15, i32 0, i32 39
  %17 = load i32, ptr %16, align 8, !tbaa !13
  %18 = icmp ne i32 %17, 0
  br i1 %18, label %21, label %19

19:                                               ; preds = %13
  %20 = load ptr, ptr %6, align 8, !tbaa !11
  call void (ptr, i32, i32, ptr, ptr, ptr, ...) @arkProcessError(ptr noundef %20, i32 noundef -48, i32 noundef 710, ptr noundef @__func__.ARKodeSetLSNormFactor, ptr noundef @.str, ptr noundef @.str.2)
  store i32 -48, ptr %3, align 4
  store i32 1, ptr %9, align 4
  br label %85

21:                                               ; preds = %13
  %22 = load ptr, ptr %6, align 8, !tbaa !11
  %23 = call i32 @arkLs_AccessLMem(ptr noundef %22, ptr noundef @__func__.ARKodeSetLSNormFactor, ptr noundef %7)
  store i32 %23, ptr %8, align 4, !tbaa !30
  %24 = load i32, ptr %8, align 4, !tbaa !30
  %25 = icmp ne i32 %24, 0
  br i1 %25, label %26, label %28

26:                                               ; preds = %21
  %27 = load i32, ptr %8, align 4, !tbaa !30
  store i32 %27, ptr %3, align 4
  store i32 1, ptr %9, align 4
  br label %85

28:                                               ; preds = %21
  %29 = load double, ptr %5, align 8, !tbaa !77
  %30 = fcmp ogt double %29, 0.000000e+00
  br i1 %30, label %31, label %35

31:                                               ; preds = %28
  %32 = load double, ptr %5, align 8, !tbaa !77
  %33 = load ptr, ptr %7, align 8, !tbaa !44
  %34 = getelementptr inbounds nuw %struct.ARKLsMemRec, ptr %33, i32 0, i32 8
  store double %32, ptr %34, align 8, !tbaa !74
  br label %84

35:                                               ; preds = %28
  %36 = load double, ptr %5, align 8, !tbaa !77
  %37 = fcmp olt double %36, 0.000000e+00
  br i1 %37, label %38, label %64

38:                                               ; preds = %35
  %39 = load ptr, ptr %6, align 8, !tbaa !11
  %40 = getelementptr inbounds nuw %struct.ARKodeMemRec, ptr %39, i32 0, i32 79
  %41 = load ptr, ptr %40, align 8, !tbaa !31
  call void @N_VConst(double noundef 1.000000e+00, ptr noundef %41)
  %42 = load ptr, ptr %6, align 8, !tbaa !11
  %43 = getelementptr inbounds nuw %struct.ARKodeMemRec, ptr %42, i32 0, i32 79
  %44 = load ptr, ptr %43, align 8, !tbaa !31
  %45 = load ptr, ptr %6, align 8, !tbaa !11
  %46 = getelementptr inbounds nuw %struct.ARKodeMemRec, ptr %45, i32 0, i32 79
  %47 = load ptr, ptr %46, align 8, !tbaa !31
  %48 = call double @N_VDotProd(ptr noundef %44, ptr noundef %47)
  %49 = fcmp ole double %48, 0.000000e+00
  br i1 %49, label %50, label %51

50:                                               ; preds = %38
  br label %60

51:                                               ; preds = %38
  %52 = load ptr, ptr %6, align 8, !tbaa !11
  %53 = getelementptr inbounds nuw %struct.ARKodeMemRec, ptr %52, i32 0, i32 79
  %54 = load ptr, ptr %53, align 8, !tbaa !31
  %55 = load ptr, ptr %6, align 8, !tbaa !11
  %56 = getelementptr inbounds nuw %struct.ARKodeMemRec, ptr %55, i32 0, i32 79
  %57 = load ptr, ptr %56, align 8, !tbaa !31
  %58 = call double @N_VDotProd(ptr noundef %54, ptr noundef %57)
  %59 = call double @sqrt(double noundef %58) #7, !tbaa !30
  br label %60

60:                                               ; preds = %51, %50
  %61 = phi double [ 0.000000e+00, %50 ], [ %59, %51 ]
  %62 = load ptr, ptr %7, align 8, !tbaa !44
  %63 = getelementptr inbounds nuw %struct.ARKLsMemRec, ptr %62, i32 0, i32 8
  store double %61, ptr %63, align 8, !tbaa !74
  br label %83

64:                                               ; preds = %35
  %65 = load ptr, ptr %6, align 8, !tbaa !11
  %66 = getelementptr inbounds nuw %struct.ARKodeMemRec, ptr %65, i32 0, i32 79
  %67 = load ptr, ptr %66, align 8, !tbaa !31
  %68 = call i64 @N_VGetLength(ptr noundef %67)
  %69 = sitofp i64 %68 to double
  %70 = fcmp ole double %69, 0.000000e+00
  br i1 %70, label %71, label %72

71:                                               ; preds = %64
  br label %79

72:                                               ; preds = %64
  %73 = load ptr, ptr %6, align 8, !tbaa !11
  %74 = getelementptr inbounds nuw %struct.ARKodeMemRec, ptr %73, i32 0, i32 79
  %75 = load ptr, ptr %74, align 8, !tbaa !31
  %76 = call i64 @N_VGetLength(ptr noundef %75)
  %77 = sitofp i64 %76 to double
  %78 = call double @sqrt(double noundef %77) #7, !tbaa !30
  br label %79

79:                                               ; preds = %72, %71
  %80 = phi double [ 0.000000e+00, %71 ], [ %78, %72 ]
  %81 = load ptr, ptr %7, align 8, !tbaa !44
  %82 = getelementptr inbounds nuw %struct.ARKLsMemRec, ptr %81, i32 0, i32 8
  store double %80, ptr %82, align 8, !tbaa !74
  br label %83

83:                                               ; preds = %79, %60
  br label %84

84:                                               ; preds = %83, %31
  store i32 0, ptr %3, align 4
  store i32 1, ptr %9, align 4
  br label %85

85:                                               ; preds = %84, %26, %19, %12
  call void @llvm.lifetime.end.p0(i64 4, ptr %8) #7
  call void @llvm.lifetime.end.p0(i64 8, ptr %7) #7
  call void @llvm.lifetime.end.p0(i64 8, ptr %6) #7
  %86 = load i32, ptr %3, align 4
  ret i32 %86
}